; Function Attrs: mustprogress nounwind uwtable
define void @_ZN6icu_7513LocaleMatcher6ResultD2Ev(ptr nocapture noundef nonnull readonly align 8 dereferenceable(25) %this) unnamed_addr #1 align 2 {
entry:
  %desiredIsOwned = getelementptr inbounds i8, ptr %this, i64 24
  %0 = load i8, ptr %desiredIsOwned, align 8
  %tobool.not = icmp eq i8 %0, 0
  br i1 %tobool.not, label %if.end, label %if.then

if.then:                                          ; preds = %entry
  %1 = load ptr, ptr %this, align 8
  %isnull = icmp eq ptr %1, null
  br i1 %isnull, label %if.end, label %delete.notnull

delete.notnull:                                   ; preds = %if.then
  %vtable = load ptr, ptr %1, align 8
  %vfn = getelementptr inbounds i8, ptr %vtable, i64 8
  %2 = load ptr, ptr %vfn, align 8
  tail call void %2(ptr noundef nonnull align 8 dereferenceable(217) %1) #15
  br label %if.end

if.end:                                           ; preds = %if.then, %delete.notnull, %entry
  ret void
}